(lp0
(lp1
F2.07
aF1.885
aF1.914
aF2.09
aF2.24
aF2.257
aF2.254
aF1.997
aF2.026
aF2.071
aF1.903
aF1.42
aF2.211
aF1.862
aF1.86
aF2.257
aF2.041
aF1.997
aF1.911
aF1.886
aF2.071
aF1.86
aF1.34
aa(lp2
F2.767
aF2.338
aF2.546
aF2.374
aF2.311
aF2.486
aF2.605
aF2.664
aF2.552
aF2.595
aF2.572
aF1.69
aF2.556
aF2.524
aF2.553
aF2.486
aF2.379
aF2.307
aF2.477
aF2.474
aF2.595
aF2.553
aF2.45
aa(lp3
F2.824
aF2.411
aF2.598
aF2.421
aF2.357
aF2.527
aF2.642
aF2.664
aF2.581
aF2.627
aF2.603
aF1.717
aF2.591
aF2.563
aF2.594
aF2.527
aF2.41
aF2.443
aF2.548
aF2.515
aF2.627
aF2.594
aF2.45
aa(lp4
F0.357
aF0.544
aF0.365
aF0.507
aF0.386
aF0.444
aF0.466
aF0.511
aF0.462
aF0.463
aF0.497
aF0.509
aF0.529
aF0.314
aF0.493
aF0.42
aF0.323
aF0.346
aF0.295
aF0.305
aF0.495
aF0.495
aF0.430048
aa(lp5
F62.9
aF19.93
aF143.35
aF19.75
aF120.91
aF59.44
aF102.78
aF17.87
aF149.77
aF17.87
aF30.19
aF122.35
aF52.98
aF189.42
aF19.53
aF132.16
aF87.38
aF78.51
aF132.22
aF179.16
aF17.87
aF24.86
aF34.3
aa(lp6
F0.37
aF0.75
aF0.53
aF0.84
aF0.37
aF0.75
aF0.75
aF0.84
aF0.37
aF0.97
aF0.97
aF0.97
aF0.84
aF0.53
aF0.53
aF0.84
aF0.64
aF0.64
aF0.64
aF0.97
aF0.75
aF0.75
aF0.707619
aa(lp7
F52.599998
aF36.299999
aF102.0
aF54.900002
aF85.099998
aF71.199997
aF105.099998
aF68.400002
aF102.0
aF75.699997
aF84.699997
aF73.599998
aF109.099998
aF113.900002
aF89.699997
aF116.199997
aF91.900002
aF68.30003
aF97.699997
aF135.399994
aF87.199997
aF87.199997
aF86.714286
aa(lp8
F0.691
aF0.592
aF0.842
aF0.594
aF0.777
aF0.655
aF0.767
aF0.558
aF0.809
aF0.596
aF0.632
aF0.73
aF0.728
aF0.756
aF0.649
aF0.743
aF0.646
aF0.624
aF0.709
aF0.743
aF0.6405
aF0.6405
aF0.689595
aa(lp9
F0.486
aF0.12
aF0.42
aF0.2
aF0.379
aF0.272
aF0.402
aF0.288
aF0.37
aF0.193
aF0.538
aF0.208
aF0.262
aF0.318
aF0.418
aF0.161
aF0.4
aF0.2
aF0.417
aF0.462
aF0.478
aF0.478
aF0.332952
aa(lp10
F0.288
aF0.312
aF0.4
aF0.354
aF0.495
aF0.388
aF0.265
aF0.271
aF0.411
aF0.229
aF0.262
aF0.34
aF0.362
aF0.318
aF0.327
aF0.429
aF0.2
aF0.533
aF0.375
aF0.231
aF0.2945
aF0.2945
aF0.337357
aa(lp11
F0.52
aF0.0
aF0.98
aF0.53
aF0.76
aF0.5
aF0.68
aF0.76
aF1.02
aF0.76
aF0.68
aF0.36
aF0.68
aF0.7
aF0.68
aF0.7
aF0.7
aF0.62
aF0.78
aF0.7
aF0.68
aF0.68
aF0.656667
aa(lp12
F0.71
aF1.52
aF0.69
aF1.34
aF0.63
aF1.08
aF0.99
aF1.21
aF0.66
aF1.37
aF0.84
aF1.61
aF1.06
aF0.71
aF0.87
aF1.07
aF1.07
aF1.19
aF0.59
aF0.76
aF0.855
aF0.855
aF0.991667
aa(lp13
F91.5
aF66.400002
aF167.899994
aF99.099998
aF141.699997
aF122.099998
aF171.300003
aF124.5
aF168.800003
aF135.199997
aF155.100006
aF129.300003
aF202.0
aF203.399994
aF161.100006
aF203.600006
aF167.300003
aF117.699997
aF170.800003
aF237.600006
aF158.100006
aF158.100006
aF152.119049
aa(lp14
F115.0
aF75.0
aF170.0
aF115.0
aF155.0
aF140.0
aF200.0
aF150.0
aF175.0
aF160.0
aF190.0
aF145.0
aF225.0
aF210.0
aF180.0
aF230.0
aF195.0
aF135.0
aF185.0
aF255.0
aF185.0
aF185.0
aF170.952381
aa(lp15
F25.0
aF23.0
aF23.0
aF44.0
aF18.0
aF47.0
aF97.0
aF50.0
aF18.0
aF63.0
aF49.0
aF50.0
aF90.0
aF24.0
aF71.0
aF60.0
aF43.0
aF19.0
aF31.0
aF32.0
aF60.0
aF60.0
aF44.619048
aa(lp16
F0.38
aF0.36
aF0.45
aF0.22
aF0.54
aF0.23
aF0.03
aF0.15
aF0.6
aF0.12
aF0.18
aF0.18
aF0.01
aF0.5
aF0.07
aF0.15
aF0.17
aF0.45
aF0.4
aF0.27
aF0.125
aF0.125
aF0.265952
aa(lp17
F0.2
aF0.18
aF0.16
aF0.08
aF0.18
aF0.08
aF0.0
aF0.04
aF0.19
aF0.03
aF0.03
aF0.04
aF0.0
aF0.14
aF0.01
aF0.03
aF0.02
aF0.22
aF0.11
aF0.04
aF0.02
aF0.02
aF0.085714
aa(lp18
F0.66
aF1.56
aF0.59
aF1.43
aF0.5
aF0.96
aF1.01
aF1.46
aF0.47
aF1.56
aF0.74
aF1.52
aF0.95
aF0.6
aF0.98
aF1.14
aF0.95
aF1.19
aF0.6
aF0.96
aF0.86
aF0.86
aF0.985238
aa(lp19
F1.42
aF0.57
aF1.21
aF0.77
aF1.06
aF0.83
aF1.16
aF1.01
aF1.08
aF0.67
aF1.51
aF0.57
aF0.98
aF1.13
aF1.11
aF0.69
aF1.0
aF0.7
aF1.45
aF1.08
aF1.31
aF1.31
aF1.014762
aa(lp20
F0.83
aF0.75
aF1.3
aF0.75
aF1.7
aF1.19
aF0.74
aF0.54
aF1.6
aF0.89
aF0.37
aF0.55
aF0.93
aF1.38
aF1.1
aF1.47
aF0.87
aF1.19
aF1.05
aF1.37
aF0.735
aF0.735
aF1.014524
aa(lp21
F0.74
aF1.56
aF0.5
aF1.43
aF0.59
aF0.98
aF1.19
aF1.52
aF0.47
aF1.46
aF0.95
aF1.56
aF1.01
aF0.66
aF0.96
aF1.14
aF0.95
aF0.96
aF0.6
aF0.6
aF0.955
aF0.955
aF0.989762
aa(lp22
F0.75
aF0.64
aF0.9
aF0.68
aF0.86
aF0.7
aF0.82
aF0.6
aF0.9
aF0.61
aF0.66
aF0.76
aF0.7
aF0.77
aF0.67
aF0.71
aF0.67
aF0.61
aF0.75
aF0.74
aF0.665
aF0.665
aF0.722143
aa(lp23
F0.6
aF1.38
aF0.7
aF1.26
aF0.48
aF1.05
aF1.1
aF1.24
aF0.67
aF1.42
aF0.64
aF1.47
aF0.79
aF1.05
aF0.92
aF1.35
aF0.95
aF1.29
aF0.67
aF1.23
aF0.78
aF0.78
aF1.001905
aa(lp24
F2.5
aF0.5
aF5.5
aF3.0
aF5.0
aF5.0
aF7.0
aF2.5
aF5.5
aF5.0
aF5.0
aF5.5
aF7.5
aF6.5
aF6.0
aF7.0
aF6.0
aF3.0
aF6.0
aF7.0
aF5.5
aF5.5
aF5.071429
aa(lp25
F100.0
aF49.0
aF40.0
aF120.0
aF74.0
aF97.0
aF56.0
aF106.0
aF96.0
aF134.0
aF102.0
aF56.0
aF65.0
aF41.0
aF93.0
aF41.0
aF66.0
aF20.0
aF94.0
aF18.0
aF97.5
aF97.5
aF74.547619
aa(lp26
F0.67
aF0.0
aF1.9
aF0.01
aF1.5
aF0.52
aF-0.57
aF-1.2
aF1.9
aF-0.6
aF-0.76
aF1.2
aF-2.1
aF2.3
aF-0.22
aF1.6
aF0.64
aF0.38
aF2.4
aF2.6
aF-0.49
aF-0.49
aF0.55619
aa(lp27
F0.0
aF0.0
aF1.0
aF0.73
aF0.48
aF1.5
aF5.7
aF1.9
aF1.2
aF1.3
aF3.0
aF0.18
aF10.0
aF1.1
aF1.9
aF1.8
aF0.99
aF0.17
aF1.9
aF1.6
aF2.45
aF2.45
aF1.852381
aa(lp28
F89.089996
aF75.07
aF131.169998
aF105.089996
aF117.150002
aF119.120003
aF146.190002
aF133.100006
aF131.169998
aF132.119995
aF147.130005
aF115.129997
aF174.199997
aF165.190002
aF146.149994
aF181.190002
aF155.160004
aF121.150002
aF149.210007
aF204.240005
aF146.64
aF146.64
aF137.364762
aa(lp29
F1.28
aF0.0
aF2.59
aF1.31
aF3.67
aF3.03
aF1.89
aF1.6
aF4.19
aF1.6
aF1.56
aF2.67
aF2.34
aF2.94
aF1.56
aF2.94
aF2.99
aF1.77
aF2.35
aF3.21
aF1.56
aF1.56
aF2.240476
aa(lp30
F1.0
aF0.0
aF4.0
aF1.6
aF3.0
aF2.6
aF4.77
aF2.78
aF4.0
aF2.95
aF3.78
aF2.72
aF6.13
aF5.89
aF3.95
aF6.47
aF4.66
aF2.43
aF4.43
aF8.08
aF3.865
aF3.865
aF3.766905
aa(lp31
F2.87
aF2.06
aF4.92
aF3.97
aF4.11
aF4.11
aF6.89
aF4.74
aF4.92
aF4.58
aF5.97
aF4.11
aF7.82
aF4.62
aF6.11
aF4.73
aF5.23
aF4.47
aF6.36
aF7.68
aF6.04
aF6.04
aF5.062381
aa(lp32
F2.04
aF1.0
aF4.45
aF2.7
aF3.17
aF3.17
aF4.87
aF3.78
aF3.49
aF4.37
aF3.31
aF4.31
aF6.24
aF6.02
aF3.53
aF6.72
aF5.66
aF3.41
aF4.8
aF5.9
aF3.42
aF3.42
aF4.112381
aa(lp33
F1.29
aF0.63
aF1.31
aF0.78
aF0.81
aF0.77
aF1.33
aF1.1
aF1.05
aF0.81
aF1.49
aF0.63
aF1.0
aF1.13
aF1.07
aF0.71
aF1.33
aF0.79
aF1.54
aF1.18
aF1.28
aF1.28
aF1.049048
aa(lp34
F0.84
aF0.94
aF1.1
aF1.05
aF1.56
aF1.2
aF0.86
aF0.59
aF1.29
aF0.66
aF0.57
aF0.8
aF1.04
aF1.15
aF1.02
aF1.39
aF0.81
aF1.27
aF0.88
aF1.15
aF0.795
aF0.795
aF0.998333
aa(lp35
F88.300003
aF60.0
aF168.5
aF88.699997
aF141.399994
aF118.199997
aF175.600006
aF110.800003
aF168.5
aF125.099998
aF140.5
aF122.199997
aF181.199997
aF189.0
aF148.699997
aF193.0
aF152.600006
aF112.400002
aF162.199997
aF227.0
aF144.599999
aF144.599999
aF143.738095
aa(lp36
F31.0
aF3.0
aF111.0
aF32.0
aF84.0
aF61.0
aF119.0
aF54.0
aF111.0
aF56.0
aF83.0
aF32.5
aF124.0
aF132.0
aF85.0
aF136.0
aF96.0
aF55.0
aF105.0
aF170.0
aF84.0
aF84.0
aF84.02381
aa(lp37
F-0.5
aF0.0
aF-1.8
aF0.3
aF-1.5
aF-0.4
aF3.0
aF3.0
aF-1.8
aF0.2
aF3.0
aF0.0
aF3.0
aF-2.5
aF0.2
aF-2.3
aF-0.5
aF-1.0
aF-1.3
aF-3.4
aF1.6
aF1.6
aF-0.128571
aa(lp38
F0.86
aF0.7
aF1.01
aF1.09
aF1.4
aF1.24
aF0.77
aF0.69
aF1.31
aF0.74
aF0.66
aF1.16
aF0.98
aF1.16
aF0.89
aF1.28
aF1.06
aF1.39
aF1.06
aF1.17
aF0.775
aF0.775
aF1.01881
aa(lp39
F0.78
aF1.73
aF0.57
aF1.19
aF0.44
aF1.09
aF1.01
aF1.5
aF0.4
aF1.56
aF0.97
aF1.55
aF1.06
aF0.67
aF0.78
aF1.14
aF0.83
aF0.6
aF0.3
aF0.74
aF0.875
aF0.875
aF0.942143
aa(lp40
F27.799999
aF24.5
aF27.6
aF42.0
aF23.700001
aF45.0
aF103.0
aF60.599998
aF22.799999
aF60.099998
aF68.199997
aF51.5
aF94.699997
aF25.5
aF68.699997
aF55.200001
aF50.700001
aF15.5
aF33.5
aF34.700001
aF68.449997
aF68.449997
aF47.797618
aa(lp41
F1.7
aF1.8
aF2.4
aF0.8
aF2.9
aF0.7
aF0.05
aF0.4
aF3.1
aF0.4
aF0.3
aF0.6
aF0.1
aF2.2
aF0.3
aF0.5
aF0.8
aF4.6
aF1.9
aF1.6
aF0.3
aF0.3
aF1.307143
aa(lp42
F0.3
aF0.3
aF0.5
aF-0.1
aF0.6
aF-0.2
aF-1.8
aF-0.6
aF0.7
aF-0.5
aF-0.7
aF-0.3
aF-1.4
aF0.5
aF-0.7
aF-0.4
aF-0.1
aF0.9
aF0.4
aF0.3
aF-0.7
aF-0.7
aF-0.142857
aa(lp43
F1.36
aF0.63
aF1.21
aF0.74
aF0.94
aF0.81
aF1.22
aF1.04
aF1.08
aF0.89
aF1.48
aF0.52
aF1.0
aF1.05
aF1.14
aF0.79
aF1.11
aF0.82
aF1.45
aF0.97
aF1.31
aF1.31
aF1.026667
aa(lp44
F0.81
aF0.88
aF1.24
aF0.92
aF1.66
aF1.18
aF0.77
aF0.71
aF1.48
aF0.62
aF0.53
aF0.61
aF0.85
aF1.2
aF0.98
aF1.23
aF0.92
aF1.17
aF1.05
aF1.18
aF0.755
aF0.755
aF0.987857
aa(lp45
F1.041
aF1.142
aF0.967
aF1.169
aF0.982
aF1.073
aF1.093
aF1.033
aF1.002
aF1.117
aF1.094
aF1.055
aF1.038
aF0.93
aF1.165
aF0.961
aF0.982
aF0.96
aF0.947
aF0.925
aF1.1295
aF1.1295
aF1.038357
aa(lp46
F0.946
aF1.042
aF0.961
aF1.048
aF0.927
aF1.051
aF1.082
aF1.089
aF0.892
aF1.006
aF1.036
aF1.085
aF1.028
aF0.912
aF1.025
aF0.93
aF0.952
aF0.878
aF0.862
aF0.917
aF1.0305
aF1.0305
aF0.98569
aa(lp47
F0.892
aF0.923
aF0.921
aF0.923
aF0.913
aF0.934
aF1.057
aF0.932
aF0.872
aF0.93
aF0.933
aF0.932
aF0.901
aF0.914
aF0.885
aF0.837
aF0.894
aF0.925
aF0.804
aF0.803
aF0.909
aF0.909
aF0.906381
aa(lp48
F0.0
aF0.0
aF0.0
aF0.0
aF0.0
aF0.0
aF1.0
aF-1.0
aF0.0
aF0.0
aF-1.0
aF0.0
aF1.0
aF0.0
aF0.0
aF0.0
aF0.0
aF0.0
aF0.0
aF0.0
aF-0.5
aF-0.5
aF-0.02381
aa(lp49
F4.6
aF7.6
aF3.25
aF5.25
aF3.4
aF4.8
aF7.9
aF5.7
aF2.6
aF5.9
aF5.6
aF7.0
aF6.5
aF3.2
aF6.1
aF4.35
aF4.5
aF-1.0
aF1.4
aF4.0
aF5.85
aF5.85
aF4.690476
aa(lp50
F4.32
aF6.09
aF3.93
aF5.37
aF3.31
aF5.16
aF7.92
aF6.04
aF2.31
aF6.24
aF6.17
aF7.19
aF6.55
aF2.59
aF6.13
aF3.58
aF5.66
aF1.73
aF2.44
aF2.78
aF6.15
aF6.15
aF4.840952
aa(lp51
F0.28
aF0.28
aF0.16
aF0.27
aF0.22
aF0.26
aF0.59
aF0.33
aF0.12
aF0.31
aF0.37
aF0.46
aF0.34
aF0.1
aF0.39
aF0.25
aF0.23
aF0.11
aF0.08
aF0.15
aF0.38
aF0.38
aF0.270476
aa(lp52
F27.5
aF0.0
aF93.5
aF29.299999
aF71.5
aF51.299999
aF100.0
aF40.0
aF93.5
aF58.700001
aF62.0
aF41.900002
aF105.0
aF115.5
aF80.699997
aF117.300003
aF79.0
aF44.599998
aF94.099998
aF145.5
aF71.349999
aF71.349999
aF72.488095
aa(lp53
F1.8
aF-0.4
aF3.8
aF-0.8
aF4.2
aF-0.7
aF-3.9
aF-3.5
aF4.5
aF-3.5
aF-3.5
aF-1.6
aF-4.5
aF2.8
aF-3.5
aF-1.3
aF-3.2
aF2.5
aF1.9
aF-0.9
aF-3.5
aF-3.5
aF-0.633333
aa(lp54
F-0.48
aF0.0
aF1.02
aF0.05
aF0.56
aF-0.35
aF-0.09
aF-0.75
aF0.81
aF-0.87
aF-0.71
aF2.03
aF-0.06
aF1.03
aF-0.32
aF1.24
aF-0.51
aF-0.32
aF0.81
aF0.66
aF-0.515
aF-0.515
aF0.154048
aa(lp55
F-0.5
aF0.0
aF-1.8
aF0.3
aF-1.5
aF-0.4
aF3.0
aF2.5
aF-1.8
aF0.2
aF2.5
aF-1.4
aF3.0
aF-2.5
aF0.2
aF-2.3
aF-0.5
aF-1.0
aF-1.3
aF-3.4
aF1.35
aF1.35
aF-0.254762
aa(lp56
F0.77
aF0.0
aF2.08
aF1.28
aF1.49
aF1.43
aF2.94
aF1.99
aF1.83
aF1.98
aF2.63
aF1.42
aF3.72
aF2.97
aF2.58
aF3.36
aF2.76
aF1.38
aF2.34
aF3.58
aF2.605
aF2.605
aF2.149286
aa(lp57
F243.199997
aF300.0
aF205.600006
aF232.0
aF220.300003
aF226.699997
aF210.899994
aF215.0
aF217.899994
aF207.100006
aF213.600006
aF237.399994
aF206.600006
aF203.699997
aF205.399994
aF243.199997
aF219.899994
aF209.399994
aF204.0
aF203.699997
aF209.5
aF209.5
aF220.719046
aa.(lp0
S'sum-Amber95'
p1
aS'sum-FCPAC free'
p2
aS'sum-FCPAC buried'
p3
aS'ISA'
p4
aS'Average flexibility indices (Bhaskaram-Ponnuswamy,1988)'
p5
aS'Conformational parameter of beta-turn (Beghi-Dirkx 1975)'
p6
aS'Residue volume (Bigelow,1967)'
p7
aS'Surface tension of amino acid solutions: A hydrophobicity scale of amino acid residues'
p8
aS'Normalized frequency of alpha-helix (Burgess et a. 1974)'
p9
aS'Normalized frequency of extended structure (Burgess et a. 1974)'
p10
aS'Steric parameter (Charton, 1981) '
p11
aS'The Chou-Fasman parameter of the coil conformation (Charton-Charton, 1983)'
p12
aS'Average volume of buried residue (Chothia, 1975)'
p13
aS'Residue accessible surface area in tripeptide (Chothia, 1976)'
p14
aS'Residue accessible surface area in folded protein (Chothia,1976)'
p15
aS'Proportion of residues 95% buried (Chothia, 1976)'
p16
aS'Proportion of residues 100% buried (Chothia, 1976)'
p17
aS'Normalized frequency of beta-turn (Chou-Fasman, 1978a)'
p18
aS'Normalized frequency of alpha-helix (Chou-Fasman, 1978b)'
p19
aS'Normalized frequency of beta-sheet (Chou-Fasman, 1978b)'
p20
aS'Normalized frequency of beta-turn (Chou-Fasman, 1978b)'
p21
aS'Partial specific volume (Cohn-Edsall, 1943)'
p22
aS'Normalized frequency of turn (Crawford et al., 1973)'
p23
aS'Size (Dawson, 1972)'
p24
aS'Relative mutability (Dayhoff et al., 1978b)'
p25
aS'Solvation free energy (Eisenberg-McLachlan, 1986)'
p26
aS'Atom-based hydrophobic moment (Eisenberg-McLachlan, 1986)'
p27
aS'Molecular weight (Fasman, 1976)'
p28
aS'Graph shape index (Fauchere et al., 1988)'
p29
aS'Normalized van der Waals volume (Fauchere et al., 1988)'
p30
aS'STERIMOL length of the side chain (Fauchere et al., 1988)'
p31
aS'STERIMOL maximum width of the side chain (Fauchere et al., 1988)'
p32
aS'Alpha-helix indices (Geisow-Roberts, 1980)'
p33
aS'Beta-strand indices (Geisow-Roberts, 1980)'
p34
aS'Residue volume (Goldsack-Chalifoux, 1973)'
p35
aS'Polarity (Grantham, 1974)'
p36
aS'Hydrophilicity value (Hopp-Woods, 1981)'
p37
aS'Normalized relative frequency of extended structure (Isogai et al., 1980)'
p38
aS'Normalized relative frequency of bend (Isogai et al., 1980)'
p39
aS'Average accessible surface area (Janin et al., 1978)'
p40
aS'Ratio of buried and accessible molar fractions (Janin, 1979)'
p41
aS'Transfer free energy (Janin, 1979)'
p42
aS'Average relative probability of helix (Kanehisa-Tsong, 1980)'
p43
aS'Average relative probability of beta-sheet (Kanehisa-Tsong, 1980)'
p44
aS'Flexibility parameter for no rigid neighbors (Karplus-Schulz, 1985)'
p45
aS'Flexibility parameter for one rigid neighbor (Karplus-Schulz, 1985)'
p46
aS'Flexibility parameter for two rigid neighbors (Karplus-Schulz, 1985)'
p47
aS'Net charge (Klein et al., 1984) ***'
p48
aS'Side chain interaction parameter (Krigbaum-Rubin, 1971)'
p49
aS'Side chain interaction parameter (Krigbaum-Komoriya, 1979)'
p50
aS'Fraction of site occupied by water (Krigbaum-Komoriya, 1979)'
p51
aS'Side chain volume (Krigbaum-Komoriya, 1979)'
p52
aS'Hydropathy index (Kyte-Doolittle, 1982)'
p53
aS'Transfer free energy, CHP/water (Lawson et al., 1984)'
p54
aS'Hydrophobic parameter (Levitt, 1976)'
p55
aS'Distance between C-alpha and centroid of side chain (Levitt, 1976)'
p56
aS'Side chain torsion angle phi(AAAR) (Levitt, 1976)'
p57
a.